; ModuleID = '25/289.c'
source_filename = "25/289.c"
target datalayout = "e-m:e-p270:32:32-p271:32:32-p272:64:64-i64:64-f80:128-n8:16:32:64-S128"
target triple = "x86_64-pc-linux-gnu"

@.str = private unnamed_addr constant [4 x i8] c"%lf\00", align 1
@.str.1 = private unnamed_addr constant [2 x i8] c"1\00", align 1
@.str.2 = private unnamed_addr constant [6 x i8] c"%.0lf\00", align 1

; Function Attrs: noinline nounwind uwtable
define dso_local i32 @main(i32 %0, i8** %1) #0 {
  %3 = alloca i32, align 4
  %4 = alloca i32, align 4
  %5 = alloca i8**, align 8
  %6 = alloca double, align 8
  %7 = alloca double, align 8
  %8 = alloca double, align 8
  store i32 0, i32* %3, align 4
  store i32 %0, i32* %4, align 4
  store i8** %1, i8*** %5, align 8
  store double 1.000000e+00, double* %8, align 8
  %9 = call i32 (i8*, ...) @__isoc99_scanf(i8* getelementptr inbounds ([4 x i8], [4 x i8]* @.str, i64 0, i64 0), double* %6)
  %10 = load double, double* %6, align 8
  %11 = fcmp oeq double %10, 0.000000e+00
  br i1 %11, label %12, label %14

12:                                               ; preds = %2
  %13 = call i32 (i8*, ...) @printf(i8* getelementptr inbounds ([2 x i8], [2 x i8]* @.str.1, i64 0, i64 0))
  br label %28

14:                                               ; preds = %2
  store double 0.000000e+00, double* %7, align 8
  br label %15

15:                                               ; preds = %22, %14
  %16 = load double, double* %7, align 8
  %17 = load double, double* %6, align 8
  %18 = fcmp olt double %16, %17
  br i1 %18, label %19, label %25

19:                                               ; preds = %15
  %20 = load double, double* %8, align 8
  %21 = fmul double 2.000000e+00, %20
  store double %21, double* %8, align 8
  br label %22

22:                                               ; preds = %19
  %23 = load double, double* %7, align 8
  %24 = fadd double %23, 1.000000e+00
  store double %24, double* %7, align 8
  br label %15

25:                                               ; preds = %15
  %26 = load double, double* %8, align 8
  %27 = call i32 (i8*, ...) @printf(i8* getelementptr inbounds ([6 x i8], [6 x i8]* @.str.2, i64 0, i64 0), double %26)
  br label %28

28:                                               ; preds = %25, %12
  ret i32 0
}

declare dso_local i32 @__isoc99_scanf(i8*, ...) #1

declare dso_local i32 @printf(i8*, ...) #1


!llvm.module.flags = !{!0}
!llvm.ident = !{!1}

!0 = !{i32 1, !"wchar_size", i32 4}
!1 = !{!"clang version 10.0.0-4ubuntu1 "}
